target datalayout = "e-m:e-p270:32:32-p271:32:32-p272:64:64-i64:64-i128:128-f80:128-n8:16:32:64-S128"
target triple = "x86_64-pc-linux-gnu"

%struct.expert_field = type { i32, i32 }
%struct._packet_info = type { ptr, ptr, i32, i32, %struct.nstime_t, %struct.nstime_t, %struct.nstime_t, i8, ptr, ptr, ptr, ptr, %struct._address, %struct._address, %struct._address, %struct._address, %struct._address, %struct._address, i32, ptr, i8, [3 x i8], %struct.anon, i32, i32, i32, i32, ptr, i8, ptr, ptr, i16, i16, i32, i32, i16, i32, i32, ptr, ptr, ptr, i8, i8, i16, i16, i16, i32, i16, i16, ptr, ptr, ptr, ptr, ptr, i32, i32 }
%struct.nstime_t = type { i64, i32 }
%struct._address = type { i32, i32, ptr, ptr }
%struct.anon = type { i8, [3 x i8] }

@ei_ncp_file_handle = internal global %struct.expert_field zeroinitializer, align 4
@ncp_echo_file = hidden global i8 0, align 1
@.str.5427 = private unnamed_addr constant [21 x i8] c"Close file handle %s\00", align 1

; Function Attrs: null_pointer_is_valid sspstrong uwtable
define internal void @ncp42_request_expert_func(ptr noundef %0, ptr noundef %1, ptr noundef %2, i1 noundef zeroext %3) #0 {
  %5 = alloca ptr, align 8
  %6 = alloca ptr, align 8
  %7 = alloca ptr, align 8
  %8 = alloca i8, align 1
  %9 = alloca ptr, align 8
  store ptr %0, ptr %5, align 8
  store ptr %1, ptr %6, align 8
  store ptr %2, ptr %7, align 8
  %10 = zext i1 %3 to i8
  store i8 %10, ptr %8, align 1
  %11 = load i8, ptr @ncp_echo_file, align 1, !range !6, !noundef !7
  %12 = trunc i8 %11 to i1
  br i1 %12, label %13, label %29

13:                                               ; preds = %4
  %14 = load i8, ptr %8, align 1, !range !6, !noundef !7
  %15 = trunc i8 %14 to i1
  br i1 %15, label %16, label %29

16:                                               ; preds = %13
  call void @llvm.lifetime.start.p0(i64 8, ptr %9) #13
  %17 = load ptr, ptr %6, align 8
  %18 = getelementptr inbounds nuw %struct._packet_info, ptr %17, i32 0, i32 51
  %19 = load ptr, ptr %18, align 8
  %20 = load ptr, ptr %5, align 8
  %21 = call ptr @ptvcursor_tvbuff(ptr noundef %20)
  %22 = load ptr, ptr %5, align 8
  %23 = call i32 @ptvcursor_current_offset(ptr noundef %22)
  %24 = add i32 %23, 1
  %25 = call ptr @tvb_bytes_to_str(ptr noundef %19, ptr noundef %21, i32 noundef %24, i32 noundef 6)
  store ptr %25, ptr %9, align 8
  %26 = load ptr, ptr %6, align 8
  %27 = load ptr, ptr %9, align 8
  %28 = call ptr (ptr, ptr, ptr, ptr, ...) @expert_add_info_format(ptr noundef %26, ptr noundef null, ptr noundef @ei_ncp_file_handle, ptr noundef @.str.5427, ptr noundef %27)
  call void @llvm.lifetime.end.p0(i64 8, ptr %9) #13
  br label %29

29:                                               ; preds = %16, %13, %4
  ret void
}