; Function Attrs: null_pointer_is_valid sspstrong uwtable
define internal void @ncp42_request_expert_func(ptr noundef %0, ptr noundef %1, ptr readnone captures(none) %2, i1 noundef zeroext %3) #0 {
  %5 = load i8, ptr @ncp_echo_file, align 1, !range !6, !noundef !7
  %6 = trunc nuw i8 %5 to i1
  %brmerge.demorgan = and i1 %3, %6
  br i1 %brmerge.demorgan, label %7, label %15

7:                                                ; preds = %4
  %8 = getelementptr inbounds nuw i8, ptr %1, i64 408
  %9 = load ptr, ptr %8, align 8
  %10 = tail call ptr @ptvcursor_tvbuff(ptr noundef %0)
  %11 = tail call i32 @ptvcursor_current_offset(ptr noundef %0)
  %12 = add i32 %11, 1
  %13 = tail call ptr @tvb_bytes_to_str(ptr noundef %9, ptr noundef %10, i32 noundef %12, i32 noundef 6)
  %14 = tail call ptr (ptr, ptr, ptr, ptr, ...) @expert_add_info_format(ptr noundef %1, ptr noundef null, ptr noundef nonnull @ei_ncp_file_handle, ptr noundef nonnull @.str.5427, ptr noundef %13)
  br label %15

15:                                               ; preds = %4, %7
  ret void
}